target datalayout = "e-m:e-p270:32:32-p271:32:32-p272:64:64-i64:64-i128:128-f80:128-n8:16:32:64-S128"
target triple = "x86_64-pc-linux-gnu"

; Function Attrs: mustprogress uwtable
define noundef i32 @_ZN15FilterColorProc15getRequirementsEPK7QAction(ptr noundef nonnull align 8 dereferenceable(80) %0, ptr noundef %1) unnamed_addr #3 align 2 {
  %3 = alloca i32, align 4
  %4 = alloca ptr, align 8
  %5 = alloca ptr, align 8
  store ptr %0, ptr %4, align 8
  store ptr %1, ptr %5, align 8
  %6 = load ptr, ptr %4, align 8
  %7 = getelementptr inbounds i8, ptr %6, i64 16
  %8 = load ptr, ptr %5, align 8
  %9 = load ptr, ptr %7, align 8
  %10 = getelementptr inbounds ptr, ptr %9, i64 18
  %11 = load ptr, ptr %10, align 8
  %12 = call noundef i32 %11(ptr noundef nonnull align 8 dereferenceable(64) %7, ptr noundef %8)
  switch i32 %12, label %16 [
    i32 12, label %13
    i32 27, label %14
    i32 28, label %15
  ]

13:                                               ; preds = %2
  store i32 536870912, ptr %3, align 4
  br label %17

14:                                               ; preds = %2
  store i32 16, ptr %3, align 4
  br label %17

15:                                               ; preds = %2
  store i32 65536, ptr %3, align 4
  br label %17

16:                                               ; preds = %2
  store i32 8, ptr %3, align 4
  br label %17

17:                                               ; preds = %16, %15, %14, %13
  %18 = load i32, ptr %3, align 4
  ret i32 %18
}

; Function Attrs: uwtable
define noundef i32 @_ZThn16_N15FilterColorProc15getRequirementsEPK7QAction(ptr noundef %0, ptr noundef %1) unnamed_addr #0 align 2 {
  %3 = alloca ptr, align 8
  %4 = alloca ptr, align 8
  store ptr %0, ptr %3, align 8
  store ptr %1, ptr %4, align 8
  %5 = load ptr, ptr %3, align 8
  %6 = getelementptr inbounds i8, ptr %5, i64 -16
  %7 = load ptr, ptr %4, align 8
  %8 = tail call noundef i32 @_ZN15FilterColorProc15getRequirementsEPK7QAction(ptr noundef nonnull align 8 dereferenceable(80) %6, ptr noundef %7)
  ret i32 %8
}