; Function Attrs: uwtable
define noundef i32 @_ZThn16_N15FilterColorProc15getRequirementsEPK7QAction(ptr noundef %0, ptr noundef %1) unnamed_addr #14 align 2 {
  %3 = load ptr, ptr %0, align 8
  %4 = getelementptr inbounds i8, ptr %3, i64 144
  %5 = load ptr, ptr %4, align 8
  %6 = tail call noundef i32 %5(ptr noundef nonnull align 8 dereferenceable(64) %0, ptr noundef %1)
  switch i32 %6, label %9 [
    i32 12, label %_ZN15FilterColorProc15getRequirementsEPK7QAction.exit
    i32 27, label %7
    i32 28, label %8
  ]

7:                                                ; preds = %2
  br label %_ZN15FilterColorProc15getRequirementsEPK7QAction.exit

8:                                                ; preds = %2
  br label %_ZN15FilterColorProc15getRequirementsEPK7QAction.exit

9:                                                ; preds = %2
  br label %_ZN15FilterColorProc15getRequirementsEPK7QAction.exit

_ZN15FilterColorProc15getRequirementsEPK7QAction.exit: ; preds = %2, %7, %8, %9
  %.0.i = phi i32 [ 8, %9 ], [ 65536, %8 ], [ 16, %7 ], [ 536870912, %2 ]
  ret i32 %.0.i
}